target datalayout = "e-m:e-p270:32:32-p271:32:32-p272:64:64-i64:64-i128:128-f80:128-n8:16:32:64-S128"
target triple = "x86_64-unknown-linux-gnu"

%struct.UStringSearch = type { ptr, %struct.UPattern, ptr, ptr, ptr, ptr, ptr, i8, i32, i32, i32, i8 }
%struct.UPattern = type { ptr, i32, i32, ptr, [256 x i32], i32, ptr, [256 x i64], i8, i8 }

; Function Attrs: mustprogress nounwind uwtable
define internal noundef signext i8 @_ZL9U_SUCCESS10UErrorCode(i32 noundef %code) #1 {
entry:
  %code.addr = alloca i32, align 4
  store i32 %code, ptr %code.addr, align 4
  %0 = load i32, ptr %code.addr, align 4
  %cmp = icmp sle i32 %0, 0
  %conv = zext i1 %cmp to i8
  ret i8 %conv
}

; Function Attrs: mustprogress uwtable
define void @usearch_setPattern_75(ptr noundef %strsrch, ptr noundef %pattern, i32 noundef %patternlength, ptr noundef %status) #0 {
entry:
  %strsrch.addr = alloca ptr, align 8
  %pattern.addr = alloca ptr, align 8
  %patternlength.addr = alloca i32, align 4
  %status.addr = alloca ptr, align 8
  store ptr %strsrch, ptr %strsrch.addr, align 8
  store ptr %pattern, ptr %pattern.addr, align 8
  store i32 %patternlength, ptr %patternlength.addr, align 4
  store ptr %status, ptr %status.addr, align 8
  %0 = load ptr, ptr %status.addr, align 8
  %1 = load i32, ptr %0, align 4
  %call = call noundef signext i8 @_ZL9U_SUCCESS10UErrorCode(i32 noundef %1)
  %tobool = icmp ne i8 %call, 0
  br i1 %tobool, label %if.then, label %if.end12

if.then:                                          ; preds = %entry
  %2 = load ptr, ptr %strsrch.addr, align 8
  %cmp = icmp eq ptr %2, null
  br i1 %cmp, label %if.then2, label %lor.lhs.false

lor.lhs.false:                                    ; preds = %if.then
  %3 = load ptr, ptr %pattern.addr, align 8
  %cmp1 = icmp eq ptr %3, null
  br i1 %cmp1, label %if.then2, label %if.else

if.then2:                                         ; preds = %lor.lhs.false, %if.then
  %4 = load ptr, ptr %status.addr, align 8
  store i32 1, ptr %4, align 4
  br label %if.end11

if.else:                                          ; preds = %lor.lhs.false
  %5 = load i32, ptr %patternlength.addr, align 4
  %cmp3 = icmp eq i32 %5, -1
  br i1 %cmp3, label %if.then4, label %if.end

if.then4:                                         ; preds = %if.else
  %6 = load ptr, ptr %pattern.addr, align 8
  %call5 = call i32 @u_strlen_75(ptr noundef %6)
  store i32 %call5, ptr %patternlength.addr, align 4
  br label %if.end

if.end:                                           ; preds = %if.then4, %if.else
  %7 = load i32, ptr %patternlength.addr, align 4
  %cmp6 = icmp eq i32 %7, 0
  br i1 %cmp6, label %if.then7, label %if.end8

if.then7:                                         ; preds = %if.end
  %8 = load ptr, ptr %status.addr, align 8
  store i32 1, ptr %8, align 4
  br label %if.end12

if.end8:                                          ; preds = %if.end
  %9 = load ptr, ptr %pattern.addr, align 8
  %10 = load ptr, ptr %strsrch.addr, align 8
  %pattern9 = getelementptr inbounds %struct.UStringSearch, ptr %10, i32 0, i32 1
  %text = getelementptr inbounds %struct.UPattern, ptr %pattern9, i32 0, i32 0
  store ptr %9, ptr %text, align 8
  %11 = load i32, ptr %patternlength.addr, align 4
  %12 = load ptr, ptr %strsrch.addr, align 8
  %pattern10 = getelementptr inbounds %struct.UStringSearch, ptr %12, i32 0, i32 1
  %textLength = getelementptr inbounds %struct.UPattern, ptr %pattern10, i32 0, i32 1
  store i32 %11, ptr %textLength, align 8
  %13 = load ptr, ptr %strsrch.addr, align 8
  %14 = load ptr, ptr %status.addr, align 8
  call void @_ZL10initializeP13UStringSearchP10UErrorCode(ptr noundef %13, ptr noundef %14)
  br label %if.end11

if.end11:                                         ; preds = %if.end8, %if.then2
  br label %if.end12

if.end12:                                         ; preds = %if.end11, %if.then7, %entry
  ret void
}