; Function Attrs: mustprogress uwtable
define void @usearch_setPattern_75(ptr noundef %strsrch, ptr noundef %pattern, i32 noundef %patternlength, ptr noundef %status) local_unnamed_addr #0 {
entry:
  %0 = load i32, ptr %status, align 4
  %cmp.i = icmp sgt i32 %0, 0
  br i1 %cmp.i, label %if.end12, label %if.then

if.then:                                          ; preds = %entry
  %cmp = icmp eq ptr %strsrch, null
  %cmp1 = icmp eq ptr %pattern, null
  %or.cond = or i1 %cmp, %cmp1
  br i1 %or.cond, label %if.then2, label %if.else

if.then2:                                         ; preds = %if.then
  store i32 1, ptr %status, align 4
  br label %if.end12

if.else:                                          ; preds = %if.then
  %cmp3 = icmp eq i32 %patternlength, -1
  br i1 %cmp3, label %if.then4, label %if.end

if.then4:                                         ; preds = %if.else
  %call5 = tail call i32 @u_strlen_75(ptr noundef nonnull %pattern)
  br label %if.end

if.end:                                           ; preds = %if.then4, %if.else
  %patternlength.addr.0 = phi i32 [ %call5, %if.then4 ], [ %patternlength, %if.else ]
  %cmp6 = icmp eq i32 %patternlength.addr.0, 0
  br i1 %cmp6, label %if.then7, label %if.end8

if.then7:                                         ; preds = %if.end
  store i32 1, ptr %status, align 4
  br label %if.end12

if.end8:                                          ; preds = %if.end
  %pattern9 = getelementptr inbounds i8, ptr %strsrch, i64 8
  store ptr %pattern, ptr %pattern9, align 8
  %textLength = getelementptr inbounds i8, ptr %strsrch, i64 16
  store i32 %patternlength.addr.0, ptr %textLength, align 8
  tail call fastcc void @_ZL10initializeP13UStringSearchP10UErrorCode(ptr noundef nonnull %strsrch, ptr noundef nonnull %status)
  br label %if.end12

if.end12:                                         ; preds = %if.then2, %if.end8, %if.then7, %entry
  ret void
}